target datalayout = "e-m:e-p270:32:32-p271:32:32-p272:64:64-i64:64-i128:128-f80:128-n8:16:32:64-S128"
target triple = "x86_64-pc-linux-gnu"

%struct.btMultibodyLink = type { float, %class.btVector3, i32, %class.btQuaternion, %class.btVector3, %class.btVector3, %struct.btSpatialMotionVector, %struct.btSpatialMotionVector, [6 x %struct.btSpatialMotionVector], i32, i32, %class.btQuaternion, %class.btVector3, %class.btQuaternion, %class.btVector3, %class.btVector3, %class.btVector3, %class.btVector3, %class.btVector3, [7 x float], [7 x float], [6 x float], ptr, i32, i32, i32, i32, ptr, %class.btTransform, ptr, ptr, ptr, float, float, float, float, float, float }
%struct.btSpatialMotionVector = type { %class.btVector3, %class.btVector3 }
%class.btQuaternion = type { %class.btQuadWord }
%class.btQuadWord = type { [4 x float] }
%class.btVector3 = type { [4 x float] }
%class.btTransform = type { %class.btMatrix3x3, %class.btVector3 }
%class.btMatrix3x3 = type { [3 x %class.btVector3] }
%class.btMultiBodyConstraint = type { ptr, ptr, ptr, i32, i32, i32, i32, i32, i32, i32, i8, i32, float, %class.btAlignedObjectArray }
%class.btAlignedObjectArray = type <{ [4 x i8], i32, i32, [4 x i8], ptr, i8, [7 x i8] }>
%class.btMultiBody = type { ptr, ptr, ptr, %class.btVector3, %class.btVector3, %class.btQuaternion, %class.btQuaternion, float, %class.btVector3, %class.btVector3, %class.btVector3, %class.btVector3, %class.btVector3, [4 x i8], %class.btAlignedObjectArray.0, %class.btAlignedObjectArray, %class.btAlignedObjectArray, %class.btAlignedObjectArray, %class.btAlignedObjectArray.2, %class.btAlignedObjectArray.4, %class.btMatrix3x3, %class.btMatrix3x3, %class.btMatrix3x3, %class.btMatrix3x3, i8, i8, i8, i8, i8, float, float, float, ptr, i32, i32, i32, float, float, i8, float, float, i8, i8, i32, i32, i8, i8, i8, i8 }
%class.btAlignedObjectArray.0 = type <{ [4 x i8], i32, i32, [4 x i8], ptr, i8, [7 x i8] }>
%class.btAlignedObjectArray.2 = type <{ [4 x i8], i32, i32, [4 x i8], ptr, i8, [7 x i8] }>
%class.btAlignedObjectArray.4 = type <{ [4 x i8], i32, i32, [4 x i8], ptr, i8, [7 x i8] }>
%class.btCollisionObject = type <{ ptr, %class.btTransform, %class.btTransform, %class.btVector3, %class.btVector3, %class.btVector3, i32, float, ptr, ptr, ptr, ptr, i32, i32, i32, i32, i32, float, float, float, float, float, float, float, i32, [4 x i8], ptr, i32, i32, i32, float, float, float, i32, [4 x i8], %class.btAlignedObjectArray.6, i32, %class.btVector3, [4 x i8] }>
%class.btAlignedObjectArray.6 = type <{ [4 x i8], i32, i32, [4 x i8], ptr, i8, [7 x i8] }>

; Function Attrs: inlinehint mustprogress nounwind uwtable
define linkonce_odr dso_local noundef nonnull align 8 dereferenceable(688) ptr @_ZN20btAlignedObjectArrayI15btMultibodyLinkEixEi(ptr noundef nonnull align 8 dereferenceable(25) %0, i32 noundef %1) #6 comdat align 2 {
  %3 = alloca ptr, align 8
  %4 = alloca i32, align 4
  store ptr %0, ptr %3, align 8, !tbaa !109
  store i32 %1, ptr %4, align 4, !tbaa !9
  %5 = load ptr, ptr %3, align 8
  %6 = getelementptr inbounds nuw %class.btAlignedObjectArray.0, ptr %5, i32 0, i32 4
  %7 = load ptr, ptr %6, align 8, !tbaa !111
  %8 = load i32, ptr %4, align 4, !tbaa !9
  %9 = sext i32 %8 to i64
  %10 = getelementptr inbounds %struct.btMultibodyLink, ptr %7, i64 %9
  ret ptr %10
}

; Function Attrs: mustprogress uwtable
define linkonce_odr dso_local noundef nonnull align 8 dereferenceable(688) ptr @_ZN11btMultiBody7getLinkEi(ptr noundef nonnull align 8 dereferenceable(640) %0, i32 noundef %1) #2 comdat align 2 {
  %3 = alloca ptr, align 8
  %4 = alloca i32, align 4
  store ptr %0, ptr %3, align 8, !tbaa !14
  store i32 %1, ptr %4, align 4, !tbaa !9
  %5 = load ptr, ptr %3, align 8
  %6 = getelementptr inbounds nuw %class.btMultiBody, ptr %5, i32 0, i32 14
  %7 = load i32, ptr %4, align 4, !tbaa !9
  %8 = call noundef nonnull align 8 dereferenceable(688) ptr @_ZN20btAlignedObjectArrayI15btMultibodyLinkEixEi(ptr noundef nonnull align 8 dereferenceable(25) %6, i32 noundef %7)
  ret ptr %8
}

; Function Attrs: inlinehint mustprogress nounwind uwtable
define linkonce_odr dso_local noundef i32 @_ZNK17btCollisionObject12getIslandTagEv(ptr noundef nonnull align 8 dereferenceable(372) %0) #6 comdat align 2 {
  %2 = alloca ptr, align 8
  store ptr %0, ptr %2, align 8, !tbaa !67
  %3 = load ptr, ptr %2, align 8
  %4 = getelementptr inbounds nuw %class.btCollisionObject, ptr %3, i32 0, i32 13
  %5 = load i32, ptr %4, align 4, !tbaa !69
  ret i32 %5
}

; Function Attrs: mustprogress nounwind uwtable
define linkonce_odr dso_local noundef ptr @_ZN11btMultiBody15getBaseColliderEv(ptr noundef nonnull align 8 dereferenceable(640) %0) #1 comdat align 2 {
  %2 = alloca ptr, align 8
  store ptr %0, ptr %2, align 8, !tbaa !14
  %3 = load ptr, ptr %2, align 8
  %4 = getelementptr inbounds nuw %class.btMultiBody, ptr %3, i32 0, i32 1
  %5 = load ptr, ptr %4, align 8, !tbaa !56
  ret ptr %5
}

; Function Attrs: mustprogress uwtable
define dso_local noundef i32 @_ZNK21btMultiBodyJointMotor12getIslandIdAEv(ptr noundef nonnull align 8 dereferenceable(120) %0) unnamed_addr #2 align 2 {
  %2 = alloca i32, align 4
  %3 = alloca ptr, align 8
  %4 = alloca ptr, align 8
  %5 = alloca i32, align 4
  store ptr %0, ptr %3, align 8, !tbaa !12
  %6 = load ptr, ptr %3, align 8
  %7 = getelementptr inbounds nuw %class.btMultiBodyConstraint, ptr %6, i32 0, i32 3
  %8 = load i32, ptr %7, align 8, !tbaa !46
  %9 = icmp slt i32 %8, 0
  br i1 %9, label %10, label %23

10:                                               ; preds = %1
  call void @llvm.lifetime.start.p0(i64 8, ptr %4) #13
  %11 = getelementptr inbounds nuw %class.btMultiBodyConstraint, ptr %6, i32 0, i32 1
  %12 = load ptr, ptr %11, align 8, !tbaa !45
  %13 = call noundef ptr @_ZN11btMultiBody15getBaseColliderEv(ptr noundef nonnull align 8 dereferenceable(640) %12)
  store ptr %13, ptr %4, align 8, !tbaa !54
  %14 = load ptr, ptr %4, align 8, !tbaa !54
  %15 = icmp ne ptr %14, null
  br i1 %15, label %16, label %19

16:                                               ; preds = %10
  %17 = load ptr, ptr %4, align 8, !tbaa !54
  %18 = call noundef i32 @_ZNK17btCollisionObject12getIslandTagEv(ptr noundef nonnull align 8 dereferenceable(372) %17)
  store i32 %18, ptr %2, align 4
  store i32 1, ptr %5, align 4
  br label %20

19:                                               ; preds = %10
  store i32 0, ptr %5, align 4
  br label %20

20:                                               ; preds = %19, %16
  call void @llvm.lifetime.end.p0(i64 8, ptr %4) #13
  %21 = load i32, ptr %5, align 4
  switch i32 %21, label %45 [
    i32 0, label %22
    i32 1, label %43
  ]

22:                                               ; preds = %20
  br label %42

23:                                               ; preds = %1
  %24 = getelementptr inbounds nuw %class.btMultiBodyConstraint, ptr %6, i32 0, i32 1
  %25 = load ptr, ptr %24, align 8, !tbaa !45
  %26 = getelementptr inbounds nuw %class.btMultiBodyConstraint, ptr %6, i32 0, i32 3
  %27 = load i32, ptr %26, align 8, !tbaa !46
  %28 = call noundef nonnull align 8 dereferenceable(688) ptr @_ZN11btMultiBody7getLinkEi(ptr noundef nonnull align 8 dereferenceable(640) %25, i32 noundef %27)
  %29 = getelementptr inbounds nuw %struct.btMultibodyLink, ptr %28, i32 0, i32 22
  %30 = load ptr, ptr %29, align 8, !tbaa !55
  %31 = icmp ne ptr %30, null
  br i1 %31, label %32, label %41

32:                                               ; preds = %23
  %33 = getelementptr inbounds nuw %class.btMultiBodyConstraint, ptr %6, i32 0, i32 1
  %34 = load ptr, ptr %33, align 8, !tbaa !45
  %35 = getelementptr inbounds nuw %class.btMultiBodyConstraint, ptr %6, i32 0, i32 3
  %36 = load i32, ptr %35, align 8, !tbaa !46
  %37 = call noundef nonnull align 8 dereferenceable(688) ptr @_ZN11btMultiBody7getLinkEi(ptr noundef nonnull align 8 dereferenceable(640) %34, i32 noundef %36)
  %38 = getelementptr inbounds nuw %struct.btMultibodyLink, ptr %37, i32 0, i32 22
  %39 = load ptr, ptr %38, align 8, !tbaa !55
  %40 = call noundef i32 @_ZNK17btCollisionObject12getIslandTagEv(ptr noundef nonnull align 8 dereferenceable(372) %39)
  store i32 %40, ptr %2, align 4
  br label %43

41:                                               ; preds = %23
  br label %42

42:                                               ; preds = %41, %22
  store i32 -1, ptr %2, align 4
  br label %43

43:                                               ; preds = %42, %32, %20
  %44 = load i32, ptr %2, align 4
  ret i32 %44

45:                                               ; preds = %20
  unreachable
}